; Function Attrs: nounwind uwtable
define dso_local { i64, ptr } @jv_string_concat(i64 %0, ptr %1, i64 %2, ptr %3) local_unnamed_addr #2 {
  %5 = getelementptr inbounds nuw i8, ptr %3, i64 16
  %6 = getelementptr i8, ptr %3, i64 8
  %.val = load i32, ptr %6, align 4, !tbaa !4
  %7 = lshr i32 %.val, 1
  %8 = getelementptr i8, ptr %1, i64 8
  %.val36.i = load i32, ptr %8, align 4, !tbaa !4
  %9 = lshr i32 %.val36.i, 1
  %.val.i = load i32, ptr %1, align 4, !tbaa !9
  %.not.i = icmp eq i32 %.val.i, 1
  br i1 %.not.i, label %10, label %22

10:                                               ; preds = %4
  %11 = getelementptr i8, ptr %1, i64 12
  %.val38.i = load i32, ptr %11, align 4, !tbaa !4
  %12 = sub i32 %.val38.i, %9
  %.not35.i = icmp ult i32 %12, %7
  br i1 %.not35.i, label %22, label %13

13:                                               ; preds = %10
  %14 = getelementptr inbounds nuw i8, ptr %1, i64 16
  %15 = zext nneg i32 %9 to i64
  %16 = getelementptr inbounds nuw i8, ptr %14, i64 %15
  %17 = zext nneg i32 %7 to i64
  tail call void @llvm.memcpy.p0.p0.i64(ptr nonnull align 1 %16, ptr nonnull readonly align 1 %5, i64 %17, i1 false)
  %18 = add nuw i32 %9, %7
  %19 = zext i32 %18 to i64
  %20 = getelementptr inbounds nuw [0 x i8], ptr %14, i64 0, i64 %19
  store i8 0, ptr %20, align 1, !tbaa !8
  %21 = shl i32 %18, 1
  store i32 %21, ptr %8, align 4, !tbaa !4
  br label %jvp_string_append.exit

22:                                               ; preds = %10, %4
  %23 = add nuw i32 %9, %7
  %24 = shl i32 %23, 1
  %spec.store.select.i = tail call i32 @llvm.umax.i32(i32 %24, i32 32)
  %25 = zext i32 %spec.store.select.i to i64
  %26 = add nuw nsw i64 %25, 17
  %27 = tail call noundef ptr @jv_mem_alloc(i64 noundef %26) #25
  store i32 1, ptr %27, align 4, !tbaa !9
  %28 = getelementptr inbounds nuw i8, ptr %27, i64 12
  store i32 %spec.store.select.i, ptr %28, align 4, !tbaa !4
  %29 = getelementptr inbounds nuw i8, ptr %27, i64 8
  store i32 %24, ptr %29, align 4, !tbaa !4
  %30 = getelementptr inbounds nuw i8, ptr %27, i64 16
  %31 = getelementptr inbounds nuw i8, ptr %1, i64 16
  %32 = zext nneg i32 %9 to i64
  tail call void @llvm.memcpy.p0.p0.i64(ptr nonnull align 4 %30, ptr nonnull align 4 %31, i64 %32, i1 false)
  %33 = getelementptr inbounds nuw i8, ptr %30, i64 %32
  %34 = zext nneg i32 %7 to i64
  tail call void @llvm.memcpy.p0.p0.i64(ptr nonnull align 1 %33, ptr nonnull readonly align 1 %5, i64 %34, i1 false)
  %35 = zext i32 %23 to i64
  %36 = getelementptr inbounds nuw [0 x i8], ptr %30, i64 0, i64 %35
  store i8 0, ptr %36, align 1, !tbaa !8
  %37 = load i32, ptr %1, align 4, !tbaa !9
  %38 = add nsw i32 %37, -1
  store i32 %38, ptr %1, align 4, !tbaa !9
  %.not.i.i = icmp eq i32 %38, 0
  br i1 %.not.i.i, label %39, label %jvp_string_append.exit

39:                                               ; preds = %22
  tail call void @jv_mem_free(ptr noundef nonnull %1) #25
  br label %jvp_string_append.exit

jvp_string_append.exit:                           ; preds = %13, %22, %39
  %.sroa.6.0.i = phi ptr [ %1, %13 ], [ %27, %22 ], [ %27, %39 ]
  %.sroa.033.0.insert.insert.i = phi i64 [ %0, %13 ], [ 133, %22 ], [ 133, %39 ]
  %.fca.0.insert.i = insertvalue { i64, ptr } poison, i64 %.sroa.033.0.insert.insert.i, 0
  %.fca.1.insert.i = insertvalue { i64, ptr } %.fca.0.insert.i, ptr %.sroa.6.0.i, 1
  tail call void @jv_free(i64 %2, ptr nonnull %3)
  ret { i64, ptr } %.fca.1.insert.i
}